; Function Attrs: nounwind uwtable
define hidden range(i32 0, 2) i32 @X509_ATTRIBUTE_set1_object(ptr noundef captures(address_is_null) %0, ptr noundef %1) local_unnamed_addr #0 {
  %3 = icmp eq ptr %0, null
  %4 = icmp eq ptr %1, null
  %or.cond = or i1 %3, %4
  br i1 %or.cond, label %10, label %5

5:                                                ; preds = %2
  %6 = load ptr, ptr %0, align 8, !tbaa !6
  tail call void @ASN1_OBJECT_free(ptr noundef %6) #4
  %7 = tail call ptr @OBJ_dup(ptr noundef nonnull %1) #4
  store ptr %7, ptr %0, align 8, !tbaa !6
  %8 = icmp ne ptr %7, null
  %9 = zext i1 %8 to i32
  br label %10

10:                                               ; preds = %2, %5
  %.0 = phi i32 [ %9, %5 ], [ 0, %2 ]
  ret i32 %.0
}